; Function Attrs: mustprogress nounwind willreturn uwtable
define dso_local range(i32 -5, 1) i32 @onig_node_str_set(ptr noundef %0, ptr noundef %1, ptr noundef %2, i32 noundef %3) local_unnamed_addr #15 {
  %.not.i = icmp eq i32 %3, 0
  br i1 %.not.i, label %onig_node_str_clear.exit, label %5

5:                                                ; preds = %4
  %6 = getelementptr inbounds nuw i8, ptr %0, i64 60
  %7 = load i32, ptr %6, align 4, !tbaa !10
  %.not11.i = icmp eq i32 %7, 0
  br i1 %.not11.i, label %onig_node_str_clear.exit, label %8

8:                                                ; preds = %5
  %9 = getelementptr inbounds nuw i8, ptr %0, i64 16
  %10 = load ptr, ptr %9, align 8, !tbaa !10
  %.not12.i = icmp eq ptr %10, null
  %11 = getelementptr inbounds nuw i8, ptr %0, i64 36
  %.not13.i = icmp eq ptr %10, %11
  %or.cond.i = select i1 %.not12.i, i1 true, i1 %.not13.i
  br i1 %or.cond.i, label %onig_node_str_clear.exit, label %12

12:                                               ; preds = %8
  tail call void @free(ptr noundef nonnull %10) #25
  br label %onig_node_str_clear.exit

onig_node_str_clear.exit:                         ; preds = %4, %5, %8, %12
  %13 = getelementptr inbounds nuw i8, ptr %0, i64 32
  store i32 0, ptr %13, align 8, !tbaa !10
  %14 = getelementptr inbounds nuw i8, ptr %0, i64 36
  %15 = getelementptr inbounds nuw i8, ptr %0, i64 16
  store ptr %14, ptr %15, align 8, !tbaa !10
  %16 = getelementptr inbounds nuw i8, ptr %0, i64 24
  store ptr %14, ptr %16, align 8, !tbaa !10
  %17 = getelementptr inbounds nuw i8, ptr %0, i64 60
  store i32 0, ptr %17, align 4, !tbaa !10
  %18 = tail call i32 @onig_node_str_cat(ptr noundef %0, ptr noundef %1, ptr noundef %2)
  ret i32 %18
}